; Function Attrs: nounwind uwtable
define internal ptr @keyobject_call(ptr noundef readonly captures(none) %0, ptr noundef %1, ptr noundef %2) #0 {
  %4 = alloca ptr, align 8
  call void @llvm.lifetime.start.p0(i64 8, ptr nonnull %4) #9
  %5 = call i32 (ptr, ptr, ptr, ptr, ...) @PyArg_ParseTupleAndKeywords(ptr noundef %1, ptr noundef %2, ptr noundef nonnull @.str.68, ptr noundef nonnull @keyobject_call.kwargs, ptr noundef nonnull %4) #9
  %.not = icmp eq i32 %5, 0
  br i1 %.not, label %24, label %6

6:                                                ; preds = %3
  %7 = getelementptr i8, ptr %0, i64 8
  %.val = load ptr, ptr %7, align 8, !tbaa !113
  %8 = call ptr @_PyObject_GC_New(ptr noundef %.val) #9
  %9 = icmp eq ptr %8, null
  br i1 %9, label %24, label %10

10:                                               ; preds = %6
  %11 = getelementptr inbounds nuw i8, ptr %0, i64 16
  %12 = load ptr, ptr %11, align 8, !tbaa !110
  %13 = load i32, ptr %12, align 8, !tbaa !21
  %14 = icmp slt i32 %13, 0
  br i1 %14, label %_Py_NewRef.exit, label %15

15:                                               ; preds = %10
  %16 = add nuw i32 %13, 1
  store i32 %16, ptr %12, align 8, !tbaa !21
  br label %_Py_NewRef.exit

_Py_NewRef.exit:                                  ; preds = %10, %15
  %17 = getelementptr inbounds nuw i8, ptr %8, i64 16
  store ptr %12, ptr %17, align 8, !tbaa !110
  %18 = load ptr, ptr %4, align 8, !tbaa !20
  %19 = load i32, ptr %18, align 8, !tbaa !21
  %20 = icmp slt i32 %19, 0
  br i1 %20, label %_Py_NewRef.exit11, label %21

21:                                               ; preds = %_Py_NewRef.exit
  %22 = add nuw i32 %19, 1
  store i32 %22, ptr %18, align 8, !tbaa !21
  br label %_Py_NewRef.exit11

_Py_NewRef.exit11:                                ; preds = %_Py_NewRef.exit, %21
  %23 = getelementptr inbounds nuw i8, ptr %8, i64 24
  store ptr %18, ptr %23, align 8, !tbaa !112
  call void @PyObject_GC_Track(ptr noundef nonnull %8) #9
  br label %24

24:                                               ; preds = %6, %3, %_Py_NewRef.exit11
  %.0 = phi ptr [ %8, %_Py_NewRef.exit11 ], [ null, %3 ], [ null, %6 ]
  call void @llvm.lifetime.end.p0(i64 8, ptr nonnull %4) #9
  ret ptr %.0
}